target datalayout = "e-m:e-p270:32:32-p271:32:32-p272:64:64-i64:64-i128:128-f80:128-n8:16:32:64-S128"
target triple = "x86_64-pc-linux-gnu"

; Function Attrs: nounwind uwtable
define internal ptr @dsa_mod_inverse_fermat(ptr noundef %0, ptr noundef %1, ptr noundef %2) #0 {
  %4 = alloca ptr, align 8
  %5 = alloca ptr, align 8
  %6 = alloca ptr, align 8
  %7 = alloca ptr, align 8
  %8 = alloca ptr, align 8
  %9 = alloca ptr, align 8
  %10 = alloca ptr, align 8
  %11 = alloca i32, align 4
  store ptr %0, ptr %5, align 8, !tbaa !16
  store ptr %1, ptr %6, align 8, !tbaa !16
  store ptr %2, ptr %7, align 8, !tbaa !18
  call void @llvm.lifetime.start.p0(i64 8, ptr %8) #3
  store ptr null, ptr %8, align 8, !tbaa !16
  call void @llvm.lifetime.start.p0(i64 8, ptr %9) #3
  call void @llvm.lifetime.start.p0(i64 8, ptr %10) #3
  %12 = call ptr @BN_new()
  store ptr %12, ptr %9, align 8, !tbaa !16
  %13 = icmp eq ptr %12, null
  br i1 %13, label %14, label %15

14:                                               ; preds = %3
  store ptr null, ptr %4, align 8
  store i32 1, ptr %11, align 4
  br label %45

15:                                               ; preds = %3
  %16 = load ptr, ptr %7, align 8, !tbaa !18
  call void @BN_CTX_start(ptr noundef %16)
  %17 = load ptr, ptr %7, align 8, !tbaa !18
  %18 = call ptr @BN_CTX_get(ptr noundef %17)
  store ptr %18, ptr %10, align 8, !tbaa !16
  %19 = icmp ne ptr %18, null
  br i1 %19, label %20, label %40

20:                                               ; preds = %15
  %21 = load ptr, ptr %9, align 8, !tbaa !16
  %22 = call i32 @BN_set_word(ptr noundef %21, i64 noundef 2)
  %23 = icmp ne i32 %22, 0
  br i1 %23, label %24, label %40

24:                                               ; preds = %20
  %25 = load ptr, ptr %10, align 8, !tbaa !16
  %26 = load ptr, ptr %6, align 8, !tbaa !16
  %27 = load ptr, ptr %9, align 8, !tbaa !16
  %28 = call i32 @BN_sub(ptr noundef %25, ptr noundef %26, ptr noundef %27)
  %29 = icmp ne i32 %28, 0
  br i1 %29, label %30, label %40

30:                                               ; preds = %24
  %31 = load ptr, ptr %9, align 8, !tbaa !16
  %32 = load ptr, ptr %5, align 8, !tbaa !16
  %33 = load ptr, ptr %10, align 8, !tbaa !16
  %34 = load ptr, ptr %6, align 8, !tbaa !16
  %35 = load ptr, ptr %7, align 8, !tbaa !18
  %36 = call i32 @BN_mod_exp_mont(ptr noundef %31, ptr noundef %32, ptr noundef %33, ptr noundef %34, ptr noundef %35, ptr noundef null)
  %37 = icmp ne i32 %36, 0
  br i1 %37, label %38, label %40

38:                                               ; preds = %30
  %39 = load ptr, ptr %9, align 8, !tbaa !16
  store ptr %39, ptr %8, align 8, !tbaa !16
  br label %42

40:                                               ; preds = %30, %24, %20, %15
  %41 = load ptr, ptr %9, align 8, !tbaa !16
  call void @BN_free(ptr noundef %41)
  br label %42

42:                                               ; preds = %40, %38
  %43 = load ptr, ptr %7, align 8, !tbaa !18
  call void @BN_CTX_end(ptr noundef %43)
  %44 = load ptr, ptr %8, align 8, !tbaa !16
  store ptr %44, ptr %4, align 8
  store i32 1, ptr %11, align 4
  br label %45

45:                                               ; preds = %42, %14
  call void @llvm.lifetime.end.p0(i64 8, ptr %10) #3
  call void @llvm.lifetime.end.p0(i64 8, ptr %9) #3
  call void @llvm.lifetime.end.p0(i64 8, ptr %8) #3
  %46 = load ptr, ptr %4, align 8
  ret ptr %46
}