; Function Attrs: nounwind uwtable
define internal fastcc ptr @dsa_mod_inverse_fermat(ptr noundef nonnull %0, ptr noundef %1, ptr noundef nonnull %2) unnamed_addr #3 {
  %4 = tail call ptr @BN_new() #8
  %5 = icmp eq ptr %4, null
  br i1 %5, label %16, label %6

6:                                                ; preds = %3
  tail call void @BN_CTX_start(ptr noundef nonnull %2) #8
  %7 = tail call ptr @BN_CTX_get(ptr noundef nonnull %2) #8
  %.not = icmp eq ptr %7, null
  br i1 %.not, label %14, label %8

8:                                                ; preds = %6
  %9 = tail call i32 @BN_set_word(ptr noundef nonnull %4, i64 noundef 2) #8
  %.not19 = icmp eq i32 %9, 0
  br i1 %.not19, label %14, label %10

10:                                               ; preds = %8
  %11 = tail call i32 @BN_sub(ptr noundef nonnull %7, ptr noundef %1, ptr noundef nonnull %4) #8
  %.not20 = icmp eq i32 %11, 0
  br i1 %.not20, label %14, label %12

12:                                               ; preds = %10
  %13 = tail call i32 @BN_mod_exp_mont(ptr noundef nonnull %4, ptr noundef nonnull %0, ptr noundef nonnull %7, ptr noundef %1, ptr noundef nonnull %2, ptr noundef null) #8
  %.not21 = icmp eq i32 %13, 0
  br i1 %.not21, label %14, label %15

14:                                               ; preds = %12, %10, %8, %6
  tail call void @BN_free(ptr noundef nonnull %4) #8
  br label %15

15:                                               ; preds = %12, %14
  %.016 = phi ptr [ null, %14 ], [ %4, %12 ]
  tail call void @BN_CTX_end(ptr noundef nonnull %2) #8
  br label %16

16:                                               ; preds = %3, %15
  %.0 = phi ptr [ %.016, %15 ], [ null, %3 ]
  ret ptr %.0
}